; Function Attrs: mustprogress uwtable
define noundef zeroext i1 @_Z27_gmx_selparser_handle_errorPv(ptr noundef %0) local_unnamed_addr #0 personality ptr @__gxx_personality_v0 {
  %2 = alloca %"class.std::__cxx11::basic_string", align 8
  call void @llvm.lifetime.start.p0(i64 32, ptr nonnull %2) #24
  %3 = tail call noundef ptr @_Z22_gmx_sel_lexer_pselstrPv(ptr noundef %0)
  call void (ptr, ptr, ...) @_ZN3gmx12formatStringB5cxx11EPKcz(ptr dead_on_unwind nonnull writable sret(%"class.std::__cxx11::basic_string") align 8 %2, ptr noundef nonnull @.str.1, ptr noundef %3)
  invoke void @_Z44_gmx_sel_lexer_rethrow_exception_if_occurredPv(ptr noundef %0)
          to label %33 unwind label %4

4:                                                ; preds = %1
  %5 = landingpad { ptr, i32 }
          cleanup
          catch ptr @_ZTIN3gmx14UserInputErrorE
          catch ptr @_ZTIN3gmx16GromacsExceptionE
  %6 = extractvalue { ptr, i32 } %5, 0
  %7 = extractvalue { ptr, i32 } %5, 1
  %8 = call i32 @llvm.eh.typeid.for.p0(ptr nonnull @_ZTIN3gmx14UserInputErrorE) #24
  %9 = icmp eq i32 %7, %8
  br i1 %9, label %10, label %17

10:                                               ; preds = %4
  %11 = call ptr @__cxa_begin_catch(ptr %6) #24
  invoke void @_ZN3gmx16GromacsException14prependContextERKNSt7__cxx1112basic_stringIcSt11char_traitsIcESaIcEEE(ptr noundef nonnull align 8 dereferenceable(24) %11, ptr noundef nonnull align 8 dereferenceable(32) %2)
          to label %12 unwind label %25

12:                                               ; preds = %10
  %13 = invoke noundef ptr @_Z32_gmx_sel_lexer_get_status_writerPv(ptr noundef %0)
          to label %14 unwind label %27

14:                                               ; preds = %12
  %.not = icmp eq ptr %13, null
  br i1 %.not, label %29, label %15

15:                                               ; preds = %14
  invoke void @_ZN3gmx30formatExceptionMessageToWriterEPNS_10TextWriterERKSt9exception(ptr noundef nonnull %13, ptr noundef nonnull align 8 dereferenceable(8) %11)
          to label %16 unwind label %27

16:                                               ; preds = %15
  invoke void @__cxa_end_catch()
          to label %36 unwind label %30

17:                                               ; preds = %4
  %18 = call i32 @llvm.eh.typeid.for.p0(ptr nonnull @_ZTIN3gmx16GromacsExceptionE) #24
  %19 = icmp eq i32 %7, %18
  br i1 %19, label %20, label %45

20:                                               ; preds = %17
  %21 = call ptr @__cxa_begin_catch(ptr %6) #24
  invoke void @_ZN3gmx16GromacsException14prependContextERKNSt7__cxx1112basic_stringIcSt11char_traitsIcESaIcEEE(ptr noundef nonnull align 8 dereferenceable(24) %21, ptr noundef nonnull align 8 dereferenceable(32) %2)
          to label %22 unwind label %23

22:                                               ; preds = %20
  invoke void @__cxa_rethrow() #27
          to label %57 unwind label %23

23:                                               ; preds = %22, %20
  %24 = landingpad { ptr, i32 }
          cleanup
  invoke void @__cxa_end_catch()
          to label %45 unwind label %54

25:                                               ; preds = %10
  %26 = landingpad { ptr, i32 }
          cleanup
  br label %32

27:                                               ; preds = %29, %15, %12
  %28 = landingpad { ptr, i32 }
          cleanup
  br label %32

29:                                               ; preds = %14
  invoke void @__cxa_rethrow() #27
          to label %57 unwind label %27

30:                                               ; preds = %16
  %31 = landingpad { ptr, i32 }
          cleanup
  br label %45

32:                                               ; preds = %27, %25
  %.pn = phi { ptr, i32 } [ %28, %27 ], [ %26, %25 ]
  invoke void @__cxa_end_catch()
          to label %45 unwind label %54

33:                                               ; preds = %1
  invoke void @_ZN3gmx8internal13assertHandlerEPKcS2_S2_S2_i(ptr noundef nonnull @.str.2, ptr noundef nonnull @.str.3, ptr noundef nonnull @"__PRETTY_FUNCTION__._ZZ27_gmx_selparser_handle_errorPvENK3$_0clEv", ptr noundef nonnull @.str.4, i32 noundef 324) #27
          to label %.noexc unwind label %34

.noexc:                                           ; preds = %33
  unreachable

34:                                               ; preds = %33
  %35 = landingpad { ptr, i32 }
          cleanup
  br label %45

36:                                               ; preds = %16
  %37 = load ptr, ptr %2, align 8, !tbaa !7
  %38 = getelementptr inbounds nuw i8, ptr %2, i64 16
  %39 = icmp eq ptr %37, %38
  br i1 %39, label %_ZNKSt7__cxx1112basic_stringIcSt11char_traitsIcESaIcEE11_M_is_localEv.exit.thread.i.i, label %_ZNKSt7__cxx1112basic_stringIcSt11char_traitsIcESaIcEE11_M_is_localEv.exit.i.i

_ZNKSt7__cxx1112basic_stringIcSt11char_traitsIcESaIcEE11_M_is_localEv.exit.thread.i.i: ; preds = %36
  %40 = getelementptr inbounds nuw i8, ptr %2, i64 8
  %41 = load i64, ptr %40, align 8, !tbaa !15
  %42 = icmp ult i64 %41, 16
  call void @llvm.assume(i1 %42)
  br label %_ZNSt7__cxx1112basic_stringIcSt11char_traitsIcESaIcEED2Ev.exit

_ZNKSt7__cxx1112basic_stringIcSt11char_traitsIcESaIcEE11_M_is_localEv.exit.i.i: ; preds = %36
  %43 = load i64, ptr %38, align 8, !tbaa !16
  %44 = add i64 %43, 1
  call void @_ZdlPvm(ptr noundef %37, i64 noundef %44) #25
  br label %_ZNSt7__cxx1112basic_stringIcSt11char_traitsIcESaIcEED2Ev.exit

_ZNSt7__cxx1112basic_stringIcSt11char_traitsIcESaIcEED2Ev.exit: ; preds = %_ZNKSt7__cxx1112basic_stringIcSt11char_traitsIcESaIcEE11_M_is_localEv.exit.thread.i.i, %_ZNKSt7__cxx1112basic_stringIcSt11char_traitsIcESaIcEE11_M_is_localEv.exit.i.i
  call void @llvm.lifetime.end.p0(i64 32, ptr nonnull %2) #24
  ret i1 true

45:                                               ; preds = %30, %32, %23, %34, %17
  %.merged = phi { ptr, i32 } [ %35, %34 ], [ %5, %17 ], [ %24, %23 ], [ %31, %30 ], [ %.pn, %32 ]
  %46 = load ptr, ptr %2, align 8, !tbaa !7
  %47 = getelementptr inbounds nuw i8, ptr %2, i64 16
  %48 = icmp eq ptr %46, %47
  br i1 %48, label %_ZNKSt7__cxx1112basic_stringIcSt11char_traitsIcESaIcEE11_M_is_localEv.exit.thread.i.i23, label %_ZNKSt7__cxx1112basic_stringIcSt11char_traitsIcESaIcEE11_M_is_localEv.exit.i.i22

_ZNKSt7__cxx1112basic_stringIcSt11char_traitsIcESaIcEE11_M_is_localEv.exit.thread.i.i23: ; preds = %45
  %49 = getelementptr inbounds nuw i8, ptr %2, i64 8
  %50 = load i64, ptr %49, align 8, !tbaa !15
  %51 = icmp ult i64 %50, 16
  call void @llvm.assume(i1 %51)
  br label %_ZNSt7__cxx1112basic_stringIcSt11char_traitsIcESaIcEED2Ev.exit24

_ZNKSt7__cxx1112basic_stringIcSt11char_traitsIcESaIcEE11_M_is_localEv.exit.i.i22: ; preds = %45
  %52 = load i64, ptr %47, align 8, !tbaa !16
  %53 = add i64 %52, 1
  call void @_ZdlPvm(ptr noundef %46, i64 noundef %53) #25
  br label %_ZNSt7__cxx1112basic_stringIcSt11char_traitsIcESaIcEED2Ev.exit24

_ZNSt7__cxx1112basic_stringIcSt11char_traitsIcESaIcEED2Ev.exit24: ; preds = %_ZNKSt7__cxx1112basic_stringIcSt11char_traitsIcESaIcEE11_M_is_localEv.exit.thread.i.i23, %_ZNKSt7__cxx1112basic_stringIcSt11char_traitsIcESaIcEE11_M_is_localEv.exit.i.i22
  call void @llvm.lifetime.end.p0(i64 32, ptr nonnull %2) #24
  resume { ptr, i32 } %.merged

54:                                               ; preds = %32, %23
  %55 = landingpad { ptr, i32 }
          catch ptr null
  %56 = extractvalue { ptr, i32 } %55, 0
  call void @__clang_call_terminate(ptr %56) #26
  unreachable

57:                                               ; preds = %29, %22
  unreachable
}